; ModuleID = 'source-C-CXX/55/2692.c'
source_filename = "source-C-CXX/55/2692.c"
target datalayout = "e-m:e-p270:32:32-p271:32:32-p272:64:64-i64:64-f80:128-n8:16:32:64-S128"
target triple = "x86_64-pc-linux-gnu"

@.str = private unnamed_addr constant [3 x i8] c"%d\00", align 1

; Function Attrs: nofree nounwind sspstrong uwtable
define dso_local void @main() local_unnamed_addr #0 {
  %1 = alloca i32, align 4
  %2 = alloca [200 x i32], align 16
  %3 = bitcast i32* %1 to i8*
  call void @llvm.lifetime.start.p0i8(i64 4, i8* nonnull %3) #3
  %4 = bitcast [200 x i32]* %2 to i8*
  call void @llvm.lifetime.start.p0i8(i64 800, i8* nonnull %4) #3
  %5 = call i32 (i8*, ...) @__isoc99_scanf(i8* getelementptr inbounds ([3 x i8], [3 x i8]* @.str, i64 0, i64 0), i32* nonnull %1)
  %6 = load i32, i32* %1, align 4, !tbaa !5
  %7 = sdiv i32 %6, 10000
  %8 = mul nsw i32 %7, -10000
  %9 = add i32 %8, %6
  %10 = sdiv i32 %9, 1000
  %11 = mul nsw i32 %10, -1000
  %12 = add i32 %11, %9
  %13 = sdiv i32 %12, 100
  %14 = mul nsw i32 %13, -100
  %15 = add i32 %14, %12
  %16 = sdiv i32 %15, 10
  %17 = mul nsw i32 %16, -10
  %18 = add i32 %17, %15
  %19 = add i32 %6, 9999
  %20 = icmp ult i32 %19, 19999
  %21 = add i32 %9, 999
  %22 = icmp ugt i32 %21, 1998
  %23 = select i1 %20, i1 %22, i1 false
  %24 = add i32 %12, 99
  %25 = icmp ugt i32 %24, 198
  %26 = select i1 %23, i1 %25, i1 false
  %27 = add i32 %15, 9
  %28 = icmp ugt i32 %27, 18
  %29 = select i1 %26, i1 %28, i1 false
  br i1 %29, label %43, label %30

30:                                               ; preds = %0
  %31 = icmp ult i32 %21, 1999
  %32 = select i1 %20, i1 %31, i1 false
  %33 = select i1 %32, i1 %25, i1 false
  %34 = select i1 %33, i1 %28, i1 false
  br i1 %34, label %43, label %35

35:                                               ; preds = %30
  %36 = icmp ult i32 %24, 199
  %37 = select i1 %32, i1 %36, i1 false
  %38 = select i1 %37, i1 %28, i1 false
  br i1 %38, label %43, label %39

39:                                               ; preds = %35
  %40 = icmp ult i32 %27, 19
  %41 = select i1 %37, i1 %40, i1 false
  %42 = select i1 %41, i64 1, i64 5
  br label %43

43:                                               ; preds = %39, %35, %30, %0
  %44 = phi i64 [ 4, %0 ], [ 3, %30 ], [ 2, %35 ], [ %42, %39 ]
  %45 = getelementptr inbounds [200 x i32], [200 x i32]* %2, i64 0, i64 0
  store i32 %18, i32* %45, align 16, !tbaa !5
  %46 = getelementptr inbounds [200 x i32], [200 x i32]* %2, i64 0, i64 1
  store i32 %16, i32* %46, align 4, !tbaa !5
  %47 = getelementptr inbounds [200 x i32], [200 x i32]* %2, i64 0, i64 2
  store i32 %13, i32* %47, align 8, !tbaa !5
  %48 = getelementptr inbounds [200 x i32], [200 x i32]* %2, i64 0, i64 3
  store i32 %10, i32* %48, align 4, !tbaa !5
  %49 = getelementptr inbounds [200 x i32], [200 x i32]* %2, i64 0, i64 4
  store i32 %7, i32* %49, align 16, !tbaa !5
  %50 = call i32 (i8*, ...) @printf(i8* nonnull dereferenceable(1) getelementptr inbounds ([3 x i8], [3 x i8]* @.str, i64 0, i64 0), i32 %18)
  %51 = icmp eq i64 %44, 1
  br i1 %51, label %59, label %52, !llvm.loop !9

52:                                               ; preds = %43, %52
  %53 = phi i64 [ %57, %52 ], [ 1, %43 ]
  %54 = getelementptr inbounds [200 x i32], [200 x i32]* %2, i64 0, i64 %53
  %55 = load i32, i32* %54, align 4, !tbaa !5
  %56 = call i32 (i8*, ...) @printf(i8* nonnull dereferenceable(1) getelementptr inbounds ([3 x i8], [3 x i8]* @.str, i64 0, i64 0), i32 %55)
  %57 = add nuw nsw i64 %53, 1
  %58 = icmp eq i64 %57, %44
  br i1 %58, label %59, label %52, !llvm.loop !9

59:                                               ; preds = %52, %43
  call void @llvm.lifetime.end.p0i8(i64 800, i8* nonnull %4) #3
  call void @llvm.lifetime.end.p0i8(i64 4, i8* nonnull %3) #3
  ret void
}

; Function Attrs: argmemonly mustprogress nofree nosync nounwind willreturn
declare void @llvm.lifetime.start.p0i8(i64 immarg, i8* nocapture) #1

; Function Attrs: nofree nounwind
declare noundef i32 @__isoc99_scanf(i8* nocapture noundef readonly, ...) local_unnamed_addr #2

; Function Attrs: nofree nounwind
declare noundef i32 @printf(i8* nocapture noundef readonly, ...) local_unnamed_addr #2

; Function Attrs: argmemonly mustprogress nofree nosync nounwind willreturn
declare void @llvm.lifetime.end.p0i8(i64 immarg, i8* nocapture) #1


!llvm.module.flags = !{!0, !1, !2, !3}
!llvm.ident = !{!4}

!0 = !{i32 1, !"wchar_size", i32 4}
!1 = !{i32 7, !"PIC Level", i32 2}
!2 = !{i32 7, !"PIE Level", i32 2}
!3 = !{i32 7, !"uwtable", i32 1}
!4 = !{!"clang version 13.0.0"}
!5 = !{!6, !6, i64 0}
!6 = !{!"int", !7, i64 0}
!7 = !{!"omnipotent char", !8, i64 0}
!8 = !{!"Simple C/C++ TBAA"}
!9 = distinct !{!9, !10}
!10 = !{!"llvm.loop.mustprogress"}
